target datalayout = "e-m:e-p270:32:32-p271:32:32-p272:64:64-i64:64-i128:128-f80:128-n8:16:32:64-S128"
target triple = "x86_64-unknown-linux-gnu"

%struct.HMPCommand = type { ptr, ptr, ptr, ptr, ptr, ptr, ptr, i8, ptr, ptr }
%struct.MonitorHMP = type { %struct.Monitor, i8, ptr }
%struct.Monitor = type { %struct.CharBackend, i32, i8, i8, i8, ptr, %union.anon, %struct.QemuMutex, %struct.anon, ptr, i32, i32, i32 }
%struct.CharBackend = type { ptr, ptr, ptr, ptr, ptr, ptr, i32, i32 }
%union.anon = type { %struct.QTailQLink }
%struct.QTailQLink = type { ptr, ptr }
%struct.QemuMutex = type { %union.pthread_mutex_t, i8 }
%union.pthread_mutex_t = type { %struct.__pthread_mutex_s }
%struct.__pthread_mutex_s = type { i32, i32, i32, i32, i32, i16, i16, %struct.__pthread_internal_list }
%struct.__pthread_internal_list = type { ptr, ptr }
%struct.anon = type { ptr }

@.str.25 = private unnamed_addr constant [25 x i8] c"unknown command: '%.*s'\0A\00", align 1
@.str.26 = private unnamed_addr constant [74 x i8] c"Command '%.*s' not available until machine initialization has completed.\0A\00", align 1

; Function Attrs: nounwind sspstrong uwtable
define internal zeroext i1 @cmd_can_preconfig(ptr noundef %cmd) #0 {
entry:
  %retval = alloca i1, align 1
  %cmd.addr = alloca ptr, align 8
  store ptr %cmd, ptr %cmd.addr, align 8
  %0 = load ptr, ptr %cmd.addr, align 8
  %flags = getelementptr inbounds %struct.HMPCommand, ptr %0, i32 0, i32 4
  %1 = load ptr, ptr %flags, align 8
  %tobool = icmp ne ptr %1, null
  br i1 %tobool, label %if.end, label %if.then

if.then:                                          ; preds = %entry
  store i1 false, ptr %retval, align 1
  br label %return

if.end:                                           ; preds = %entry
  %2 = load ptr, ptr %cmd.addr, align 8
  %flags1 = getelementptr inbounds %struct.HMPCommand, ptr %2, i32 0, i32 4
  %3 = load ptr, ptr %flags1, align 8
  %call = call ptr @strchr(ptr noundef %3, i32 noundef 112) #13
  %tobool2 = icmp ne ptr %call, null
  store i1 %tobool2, ptr %retval, align 1
  br label %return

return:                                           ; preds = %if.end, %if.then
  %4 = load i1, ptr %retval, align 1
  ret i1 %4
}

; Function Attrs: nounwind sspstrong uwtable
define internal zeroext i1 @cmd_available(ptr noundef %cmd) #0 {
entry:
  %cmd.addr = alloca ptr, align 8
  store ptr %cmd, ptr %cmd.addr, align 8
  %call = call zeroext i1 @phase_check(i32 noundef 4)
  br i1 %call, label %lor.end, label %lor.rhs

lor.rhs:                                          ; preds = %entry
  %0 = load ptr, ptr %cmd.addr, align 8
  %call1 = call zeroext i1 @cmd_can_preconfig(ptr noundef %0)
  br label %lor.end

lor.end:                                          ; preds = %lor.rhs, %entry
  %1 = phi i1 [ true, %entry ], [ %call1, %lor.rhs ]
  ret i1 %1
}

; Function Attrs: nounwind sspstrong uwtable
define internal ptr @search_dispatch_table(ptr noundef %disp_table, ptr noundef %cmdname) #0 {
entry:
  %retval = alloca ptr, align 8
  %disp_table.addr = alloca ptr, align 8
  %cmdname.addr = alloca ptr, align 8
  %cmd = alloca ptr, align 8
  store ptr %disp_table, ptr %disp_table.addr, align 8
  store ptr %cmdname, ptr %cmdname.addr, align 8
  %0 = load ptr, ptr %disp_table.addr, align 8
  store ptr %0, ptr %cmd, align 8
  br label %for.cond

for.cond:                                         ; preds = %for.inc, %entry
  %1 = load ptr, ptr %cmd, align 8
  %name = getelementptr inbounds %struct.HMPCommand, ptr %1, i32 0, i32 0
  %2 = load ptr, ptr %name, align 8
  %cmp = icmp ne ptr %2, null
  br i1 %cmp, label %for.body, label %for.end

for.body:                                         ; preds = %for.cond
  %3 = load ptr, ptr %cmdname.addr, align 8
  %4 = load ptr, ptr %cmd, align 8
  %name1 = getelementptr inbounds %struct.HMPCommand, ptr %4, i32 0, i32 0
  %5 = load ptr, ptr %name1, align 8
  %call = call i32 @hmp_compare_cmd(ptr noundef %3, ptr noundef %5)
  %tobool = icmp ne i32 %call, 0
  br i1 %tobool, label %if.then, label %if.end

if.then:                                          ; preds = %for.body
  %6 = load ptr, ptr %cmd, align 8
  store ptr %6, ptr %retval, align 8
  br label %return

if.end:                                           ; preds = %for.body
  br label %for.inc

for.inc:                                          ; preds = %if.end
  %7 = load ptr, ptr %cmd, align 8
  %incdec.ptr = getelementptr %struct.HMPCommand, ptr %7, i32 1
  store ptr %incdec.ptr, ptr %cmd, align 8
  br label %for.cond, !llvm.loop !37

for.end:                                          ; preds = %for.cond
  store ptr null, ptr %retval, align 8
  br label %return

return:                                           ; preds = %for.end, %if.then
  %8 = load ptr, ptr %retval, align 8
  ret ptr %8
}

; Function Attrs: nounwind sspstrong uwtable
define internal ptr @get_command_name(ptr noundef %cmdline, ptr noundef %cmdname, i64 noundef %nlen) #0 {
entry:
  %retval = alloca ptr, align 8
  %cmdline.addr = alloca ptr, align 8
  %cmdname.addr = alloca ptr, align 8
  %nlen.addr = alloca i64, align 8
  %len = alloca i64, align 8
  %p = alloca ptr, align 8
  %pstart = alloca ptr, align 8
  store ptr %cmdline, ptr %cmdline.addr, align 8
  store ptr %cmdname, ptr %cmdname.addr, align 8
  store i64 %nlen, ptr %nlen.addr, align 8
  %0 = load ptr, ptr %cmdline.addr, align 8
  store ptr %0, ptr %p, align 8
  br label %while.cond

while.cond:                                       ; preds = %while.body, %entry
  %call = call ptr @__ctype_b_loc() #14
  %1 = load ptr, ptr %call, align 8
  %2 = load ptr, ptr %p, align 8
  %3 = load i8, ptr %2, align 1
  %conv = zext i8 %3 to i32
  %idxprom = sext i32 %conv to i64
  %arrayidx = getelementptr i16, ptr %1, i64 %idxprom
  %4 = load i16, ptr %arrayidx, align 2
  %conv1 = zext i16 %4 to i32
  %and = and i32 %conv1, 8192
  %tobool = icmp ne i32 %and, 0
  br i1 %tobool, label %while.body, label %while.end

while.body:                                       ; preds = %while.cond
  %5 = load ptr, ptr %p, align 8
  %incdec.ptr = getelementptr i8, ptr %5, i32 1
  store ptr %incdec.ptr, ptr %p, align 8
  br label %while.cond, !llvm.loop !35

while.end:                                        ; preds = %while.cond
  %6 = load ptr, ptr %p, align 8
  %7 = load i8, ptr %6, align 1
  %conv2 = sext i8 %7 to i32
  %cmp = icmp eq i32 %conv2, 0
  br i1 %cmp, label %if.then, label %if.end

if.then:                                          ; preds = %while.end
  store ptr null, ptr %retval, align 8
  br label %return

if.end:                                           ; preds = %while.end
  %8 = load ptr, ptr %p, align 8
  store ptr %8, ptr %pstart, align 8
  br label %while.cond4

while.cond4:                                      ; preds = %while.body18, %if.end
  %9 = load ptr, ptr %p, align 8
  %10 = load i8, ptr %9, align 1
  %conv5 = sext i8 %10 to i32
  %cmp6 = icmp ne i32 %conv5, 0
  br i1 %cmp6, label %land.lhs.true, label %land.end

land.lhs.true:                                    ; preds = %while.cond4
  %11 = load ptr, ptr %p, align 8
  %12 = load i8, ptr %11, align 1
  %conv8 = sext i8 %12 to i32
  %cmp9 = icmp ne i32 %conv8, 47
  br i1 %cmp9, label %land.rhs, label %land.end

land.rhs:                                         ; preds = %land.lhs.true
  %call11 = call ptr @__ctype_b_loc() #14
  %13 = load ptr, ptr %call11, align 8
  %14 = load ptr, ptr %p, align 8
  %15 = load i8, ptr %14, align 1
  %conv12 = zext i8 %15 to i32
  %idxprom13 = sext i32 %conv12 to i64
  %arrayidx14 = getelementptr i16, ptr %13, i64 %idxprom13
  %16 = load i16, ptr %arrayidx14, align 2
  %conv15 = zext i16 %16 to i32
  %and16 = and i32 %conv15, 8192
  %tobool17 = icmp ne i32 %and16, 0
  %lnot = xor i1 %tobool17, true
  br label %land.end

land.end:                                         ; preds = %land.rhs, %land.lhs.true, %while.cond4
  %17 = phi i1 [ false, %land.lhs.true ], [ false, %while.cond4 ], [ %lnot, %land.rhs ]
  br i1 %17, label %while.body18, label %while.end20

while.body18:                                     ; preds = %land.end
  %18 = load ptr, ptr %p, align 8
  %incdec.ptr19 = getelementptr i8, ptr %18, i32 1
  store ptr %incdec.ptr19, ptr %p, align 8
  br label %while.cond4, !llvm.loop !36

while.end20:                                      ; preds = %land.end
  %19 = load ptr, ptr %p, align 8
  %20 = load ptr, ptr %pstart, align 8
  %sub.ptr.lhs.cast = ptrtoint ptr %19 to i64
  %sub.ptr.rhs.cast = ptrtoint ptr %20 to i64
  %sub.ptr.sub = sub i64 %sub.ptr.lhs.cast, %sub.ptr.rhs.cast
  store i64 %sub.ptr.sub, ptr %len, align 8
  %21 = load i64, ptr %len, align 8
  %22 = load i64, ptr %nlen.addr, align 8
  %sub = sub i64 %22, 1
  %cmp21 = icmp ugt i64 %21, %sub
  br i1 %cmp21, label %if.then23, label %if.end25

if.then23:                                        ; preds = %while.end20
  %23 = load i64, ptr %nlen.addr, align 8
  %sub24 = sub i64 %23, 1
  store i64 %sub24, ptr %len, align 8
  br label %if.end25

if.end25:                                         ; preds = %if.then23, %while.end20
  %24 = load ptr, ptr %cmdname.addr, align 8
  %25 = load ptr, ptr %pstart, align 8
  %26 = load i64, ptr %len, align 8
  call void @llvm.memcpy.p0.p0.i64(ptr align 1 %24, ptr align 1 %25, i64 %26, i1 false)
  %27 = load ptr, ptr %cmdname.addr, align 8
  %28 = load i64, ptr %len, align 8
  %arrayidx26 = getelementptr i8, ptr %27, i64 %28
  store i8 0, ptr %arrayidx26, align 1
  %29 = load ptr, ptr %p, align 8
  store ptr %29, ptr %retval, align 8
  br label %return

return:                                           ; preds = %if.end25, %if.then
  %30 = load ptr, ptr %retval, align 8
  ret ptr %30
}

; Function Attrs: nounwind sspstrong uwtable
define internal ptr @monitor_parse_command(ptr noundef %hmp_mon, ptr noundef %cmdp_start, ptr noundef %cmdp, ptr noundef %table) #0 {
entry:
  %retval = alloca ptr, align 8
  %hmp_mon.addr = alloca ptr, align 8
  %cmdp_start.addr = alloca ptr, align 8
  %cmdp.addr = alloca ptr, align 8
  %table.addr = alloca ptr, align 8
  %mon = alloca ptr, align 8
  %p = alloca ptr, align 8
  %cmd = alloca ptr, align 8
  %cmdname = alloca [256 x i8], align 16
  store ptr %hmp_mon, ptr %hmp_mon.addr, align 8
  store ptr %cmdp_start, ptr %cmdp_start.addr, align 8
  store ptr %cmdp, ptr %cmdp.addr, align 8
  store ptr %table, ptr %table.addr, align 8
  %0 = load ptr, ptr %hmp_mon.addr, align 8
  %common = getelementptr inbounds %struct.MonitorHMP, ptr %0, i32 0, i32 0
  store ptr %common, ptr %mon, align 8
  %1 = load ptr, ptr %cmdp.addr, align 8
  %2 = load ptr, ptr %1, align 8
  %arraydecay = getelementptr inbounds [256 x i8], ptr %cmdname, i64 0, i64 0
  %call = call ptr @get_command_name(ptr noundef %2, ptr noundef %arraydecay, i64 noundef 256)
  store ptr %call, ptr %p, align 8
  %3 = load ptr, ptr %p, align 8
  %tobool = icmp ne ptr %3, null
  br i1 %tobool, label %if.end, label %if.then

if.then:                                          ; preds = %entry
  store ptr null, ptr %retval, align 8
  br label %return

if.end:                                           ; preds = %entry
  %4 = load ptr, ptr %table.addr, align 8
  %arraydecay1 = getelementptr inbounds [256 x i8], ptr %cmdname, i64 0, i64 0
  %call2 = call ptr @search_dispatch_table(ptr noundef %4, ptr noundef %arraydecay1)
  store ptr %call2, ptr %cmd, align 8
  %5 = load ptr, ptr %cmd, align 8
  %tobool3 = icmp ne ptr %5, null
  br i1 %tobool3, label %if.end6, label %if.then4

if.then4:                                         ; preds = %if.end
  %6 = load ptr, ptr %mon, align 8
  %7 = load ptr, ptr %p, align 8
  %8 = load ptr, ptr %cmdp_start.addr, align 8
  %sub.ptr.lhs.cast = ptrtoint ptr %7 to i64
  %sub.ptr.rhs.cast = ptrtoint ptr %8 to i64
  %sub.ptr.sub = sub i64 %sub.ptr.lhs.cast, %sub.ptr.rhs.cast
  %conv = trunc i64 %sub.ptr.sub to i32
  %9 = load ptr, ptr %cmdp_start.addr, align 8
  %call5 = call i32 (ptr, ptr, ...) @monitor_printf(ptr noundef %6, ptr noundef @.str.25, i32 noundef %conv, ptr noundef %9)
  store ptr null, ptr %retval, align 8
  br label %return

if.end6:                                          ; preds = %if.end
  %10 = load ptr, ptr %cmd, align 8
  %call7 = call zeroext i1 @cmd_available(ptr noundef %10)
  br i1 %call7, label %if.end14, label %if.then8

if.then8:                                         ; preds = %if.end6
  %11 = load ptr, ptr %mon, align 8
  %12 = load ptr, ptr %p, align 8
  %13 = load ptr, ptr %cmdp_start.addr, align 8
  %sub.ptr.lhs.cast9 = ptrtoint ptr %12 to i64
  %sub.ptr.rhs.cast10 = ptrtoint ptr %13 to i64
  %sub.ptr.sub11 = sub i64 %sub.ptr.lhs.cast9, %sub.ptr.rhs.cast10
  %conv12 = trunc i64 %sub.ptr.sub11 to i32
  %14 = load ptr, ptr %cmdp_start.addr, align 8
  %call13 = call i32 (ptr, ptr, ...) @monitor_printf(ptr noundef %11, ptr noundef @.str.26, i32 noundef %conv12, ptr noundef %14)
  store ptr null, ptr %retval, align 8
  br label %return

if.end14:                                         ; preds = %if.end6
  br label %while.cond

while.cond:                                       ; preds = %while.body, %if.end14
  %call15 = call ptr @__ctype_b_loc() #14
  %15 = load ptr, ptr %call15, align 8
  %16 = load ptr, ptr %p, align 8
  %17 = load i8, ptr %16, align 1
  %conv16 = zext i8 %17 to i32
  %idxprom = sext i32 %conv16 to i64
  %arrayidx = getelementptr i16, ptr %15, i64 %idxprom
  %18 = load i16, ptr %arrayidx, align 2
  %conv17 = zext i16 %18 to i32
  %and = and i32 %conv17, 8192
  %tobool18 = icmp ne i32 %and, 0
  br i1 %tobool18, label %while.body, label %while.end

while.body:                                       ; preds = %while.cond
  %19 = load ptr, ptr %p, align 8
  %incdec.ptr = getelementptr i8, ptr %19, i32 1
  store ptr %incdec.ptr, ptr %p, align 8
  br label %while.cond, !llvm.loop !15

while.end:                                        ; preds = %while.cond
  %20 = load ptr, ptr %p, align 8
  %21 = load ptr, ptr %cmdp.addr, align 8
  store ptr %20, ptr %21, align 8
  %22 = load ptr, ptr %cmd, align 8
  %sub_table = getelementptr inbounds %struct.HMPCommand, ptr %22, i32 0, i32 8
  %23 = load ptr, ptr %sub_table, align 8
  %cmp = icmp ne ptr %23, null
  br i1 %cmp, label %land.lhs.true, label %if.end26

land.lhs.true:                                    ; preds = %while.end
  %24 = load ptr, ptr %p, align 8
  %25 = load i8, ptr %24, align 1
  %conv20 = sext i8 %25 to i32
  %cmp21 = icmp ne i32 %conv20, 0
  br i1 %cmp21, label %if.then23, label %if.end26

if.then23:                                        ; preds = %land.lhs.true
  %26 = load ptr, ptr %hmp_mon.addr, align 8
  %27 = load ptr, ptr %cmdp_start.addr, align 8
  %28 = load ptr, ptr %cmdp.addr, align 8
  %29 = load ptr, ptr %cmd, align 8
  %sub_table24 = getelementptr inbounds %struct.HMPCommand, ptr %29, i32 0, i32 8
  %30 = load ptr, ptr %sub_table24, align 8
  %call25 = call ptr @monitor_parse_command(ptr noundef %26, ptr noundef %27, ptr noundef %28, ptr noundef %30)
  store ptr %call25, ptr %retval, align 8
  br label %return

if.end26:                                         ; preds = %land.lhs.true, %while.end
  %31 = load ptr, ptr %cmd, align 8
  store ptr %31, ptr %retval, align 8
  br label %return

return:                                           ; preds = %if.end26, %if.then23, %if.then8, %if.then4, %if.then
  %32 = load ptr, ptr %retval, align 8
  ret ptr %32
}