; Function Attrs: nounwind sspstrong uwtable
define internal fastcc ptr @monitor_parse_command(ptr noundef %hmp_mon, ptr noundef %cmdp_start, ptr noundef nonnull captures(none) %cmdp, ptr noundef readonly %table) unnamed_addr #0 {
entry:
  %cmdname = alloca [256 x i8], align 16
  %0 = load ptr, ptr %cmdp, align 8
  %call.i = tail call ptr @__ctype_b_loc() #21
  %1 = load ptr, ptr %call.i, align 8
  br label %while.cond.i

while.cond.i:                                     ; preds = %while.cond.i, %entry
  %p.0.i = phi ptr [ %0, %entry ], [ %incdec.ptr.i, %while.cond.i ]
  %2 = load i8, ptr %p.0.i, align 1
  %idxprom.i = zext i8 %2 to i64
  %arrayidx.i = getelementptr i16, ptr %1, i64 %idxprom.i
  %3 = load i16, ptr %arrayidx.i, align 2
  %4 = and i16 %3, 8192
  %tobool.not.i = icmp eq i16 %4, 0
  %incdec.ptr.i = getelementptr i8, ptr %p.0.i, i64 1
  br i1 %tobool.not.i, label %while.end.i, label %while.cond.i, !llvm.loop !29

while.end.i:                                      ; preds = %while.cond.i
  %cmp.i = icmp eq i8 %2, 0
  br i1 %cmp.i, label %return, label %while.cond4.i

while.cond4.i:                                    ; preds = %while.end.i, %while.body18.i
  %5 = phi i8 [ %.pre.i, %while.body18.i ], [ %2, %while.end.i ]
  %p.1.i = phi ptr [ %incdec.ptr19.i, %while.body18.i ], [ %p.0.i, %while.end.i ]
  switch i8 %5, label %land.rhs.i [
    i8 0, label %get_command_name.exit
    i8 47, label %get_command_name.exit
  ]

land.rhs.i:                                       ; preds = %while.cond4.i
  %idxprom13.i = zext i8 %5 to i64
  %arrayidx14.i = getelementptr i16, ptr %1, i64 %idxprom13.i
  %6 = load i16, ptr %arrayidx14.i, align 2
  %7 = and i16 %6, 8192
  %tobool17.not.i = icmp eq i16 %7, 0
  br i1 %tobool17.not.i, label %while.body18.i, label %get_command_name.exit

while.body18.i:                                   ; preds = %land.rhs.i
  %incdec.ptr19.i = getelementptr i8, ptr %p.1.i, i64 1
  %.pre.i = load i8, ptr %incdec.ptr19.i, align 1
  br label %while.cond4.i, !llvm.loop !30

get_command_name.exit:                            ; preds = %while.cond4.i, %while.cond4.i, %land.rhs.i
  %sub.ptr.lhs.cast.i = ptrtoint ptr %p.1.i to i64
  %sub.ptr.rhs.cast.i = ptrtoint ptr %p.0.i to i64
  %sub.ptr.sub.i = sub i64 %sub.ptr.lhs.cast.i, %sub.ptr.rhs.cast.i
  %spec.select.i = tail call i64 @llvm.umin.i64(i64 %sub.ptr.sub.i, i64 255)
  call void @llvm.memcpy.p0.p0.i64(ptr nonnull align 16 %cmdname, ptr nonnull align 1 %p.0.i, i64 %spec.select.i, i1 false)
  %arrayidx26.i = getelementptr i8, ptr %cmdname, i64 %spec.select.i
  store i8 0, ptr %arrayidx26.i, align 1
  %8 = load ptr, ptr %table, align 8
  %cmp.not4.i = icmp eq ptr %8, null
  br i1 %cmp.not4.i, label %if.then4, label %for.body.i

for.body.i:                                       ; preds = %get_command_name.exit, %for.inc.i
  %9 = phi ptr [ %10, %for.inc.i ], [ %8, %get_command_name.exit ]
  %cmd.05.i = phi ptr [ %incdec.ptr.i22, %for.inc.i ], [ %table, %get_command_name.exit ]
  %call.i19 = call i32 @hmp_compare_cmd(ptr noundef nonnull %cmdname, ptr noundef nonnull %9) #19
  %tobool.not.i20 = icmp eq i32 %call.i19, 0
  br i1 %tobool.not.i20, label %for.inc.i, label %if.end6

for.inc.i:                                        ; preds = %for.body.i
  %incdec.ptr.i22 = getelementptr i8, ptr %cmd.05.i, i64 80
  %10 = load ptr, ptr %incdec.ptr.i22, align 8
  %cmp.not.i = icmp eq ptr %10, null
  br i1 %cmp.not.i, label %if.then4, label %for.body.i, !llvm.loop !31

if.then4:                                         ; preds = %for.inc.i, %get_command_name.exit
  %sub.ptr.rhs.cast = ptrtoint ptr %cmdp_start to i64
  %sub.ptr.sub = sub i64 %sub.ptr.lhs.cast.i, %sub.ptr.rhs.cast
  %conv = trunc i64 %sub.ptr.sub to i32
  %call5 = call i32 (ptr, ptr, ...) @monitor_printf(ptr noundef %hmp_mon, ptr noundef nonnull @.str.25, i32 noundef %conv, ptr noundef %cmdp_start) #19
  br label %return

if.end6:                                          ; preds = %for.body.i
  %call.i23 = call zeroext i1 @phase_check(i32 noundef 4) #19
  br i1 %call.i23, label %while.cond.preheader, label %lor.rhs.i

while.cond.preheader:                             ; preds = %if.end.i.i, %if.end6
  %11 = load ptr, ptr %call.i, align 8
  br label %while.cond

lor.rhs.i:                                        ; preds = %if.end6
  %12 = getelementptr i8, ptr %cmd.05.i, i64 32
  %cmd.val.i = load ptr, ptr %12, align 8
  %tobool.not.i.i = icmp eq ptr %cmd.val.i, null
  br i1 %tobool.not.i.i, label %if.then8, label %if.end.i.i

if.end.i.i:                                       ; preds = %lor.rhs.i
  %call.i.i = call ptr @strchr(ptr noundef nonnull readonly dereferenceable(1) %cmd.val.i, i32 noundef 112) #20
  %tobool2.i.i.not = icmp eq ptr %call.i.i, null
  br i1 %tobool2.i.i.not, label %if.then8, label %while.cond.preheader

if.then8:                                         ; preds = %lor.rhs.i, %if.end.i.i
  %sub.ptr.rhs.cast10 = ptrtoint ptr %cmdp_start to i64
  %sub.ptr.sub11 = sub i64 %sub.ptr.lhs.cast.i, %sub.ptr.rhs.cast10
  %conv12 = trunc i64 %sub.ptr.sub11 to i32
  %call13 = call i32 (ptr, ptr, ...) @monitor_printf(ptr noundef %hmp_mon, ptr noundef nonnull @.str.26, i32 noundef %conv12, ptr noundef %cmdp_start) #19
  br label %return

while.cond:                                       ; preds = %while.cond, %while.cond.preheader
  %p.0 = phi ptr [ %incdec.ptr, %while.cond ], [ %p.1.i, %while.cond.preheader ]
  %13 = load i8, ptr %p.0, align 1
  %idxprom = zext i8 %13 to i64
  %arrayidx = getelementptr i16, ptr %11, i64 %idxprom
  %14 = load i16, ptr %arrayidx, align 2
  %15 = and i16 %14, 8192
  %tobool18.not = icmp eq i16 %15, 0
  %incdec.ptr = getelementptr i8, ptr %p.0, i64 1
  br i1 %tobool18.not, label %while.end, label %while.cond, !llvm.loop !32

while.end:                                        ; preds = %while.cond
  store ptr %p.0, ptr %cmdp, align 8
  %sub_table = getelementptr inbounds nuw i8, ptr %cmd.05.i, i64 64
  %16 = load ptr, ptr %sub_table, align 8
  %cmp.not = icmp eq ptr %16, null
  br i1 %cmp.not, label %return, label %land.lhs.true

land.lhs.true:                                    ; preds = %while.end
  %17 = load i8, ptr %p.0, align 1
  %cmp21.not = icmp eq i8 %17, 0
  br i1 %cmp21.not, label %return, label %if.then23

if.then23:                                        ; preds = %land.lhs.true
  %call25 = call fastcc ptr @monitor_parse_command(ptr noundef %hmp_mon, ptr noundef %cmdp_start, ptr noundef %cmdp, ptr noundef nonnull %16)
  br label %return

return:                                           ; preds = %while.end.i, %while.end, %land.lhs.true, %if.then23, %if.then8, %if.then4
  %retval.0 = phi ptr [ %call25, %if.then23 ], [ null, %if.then8 ], [ null, %if.then4 ], [ %cmd.05.i, %land.lhs.true ], [ %cmd.05.i, %while.end ], [ null, %while.end.i ]
  ret ptr %retval.0
}